target datalayout = "e-m:e-p270:32:32-p271:32:32-p272:64:64-i64:64-i128:128-f80:128-n8:16:32:64-S128"
target triple = "x86_64-pc-linux-gnu"

%class.Node = type <{ ptr, ptr, ptr, i32, i32, i32, i32, i32, i32, i32, [4 x i8] }>
%class.TypeInt = type { %class.TypeInteger.base, i32, i32 }
%class.TypeInteger.base = type { %class.Type.base, i16 }
%class.Type.base = type <{ ptr, ptr, i32 }>

@g_assert_poison = external global ptr, align 8
@.str.4 = private unnamed_addr constant [32 x i8] c"src/hotspot/share/opto/node.hpp\00", align 1
@.str.5 = private unnamed_addr constant [31 x i8] c"guarantee(t != nullptr) failed\00", align 1
@.str.6 = private unnamed_addr constant [12 x i8] c"must be con\00", align 1

; Function Attrs: mustprogress nounwind uwtable
define linkonce_odr hidden noundef i32 @_ZNK7TypeInt7get_conEv(ptr noundef nonnull align 8 dereferenceable(32) %0) #1 comdat align 2 {
  %2 = alloca ptr, align 8
  store ptr %0, ptr %2, align 8
  %3 = load ptr, ptr %2, align 8
  %4 = getelementptr inbounds %class.TypeInt, ptr %3, i32 0, i32 1
  %5 = load i32, ptr %4, align 8
  ret i32 %5
}

; Function Attrs: mustprogress nounwind uwtable
define linkonce_odr hidden noundef i32 @_ZNK4Node7get_intEv(ptr noundef nonnull align 8 dereferenceable(52) %0) #1 comdat align 2 {
  %2 = alloca ptr, align 8
  %3 = alloca ptr, align 8
  store ptr %0, ptr %2, align 8
  %4 = load ptr, ptr %2, align 8
  %5 = call noundef ptr @_ZNK4Node13find_int_typeEv(ptr noundef nonnull align 8 dereferenceable(52) %4)
  store ptr %5, ptr %3, align 8
  br label %6

6:                                                ; preds = %1
  %7 = load ptr, ptr %3, align 8
  %8 = icmp ne ptr %7, null
  br i1 %8, label %11, label %9

9:                                                ; preds = %6
  %10 = load ptr, ptr @g_assert_poison, align 8
  store i8 88, ptr %10, align 1
  call void (ptr, i32, ptr, ptr, ...) @_Z15report_vm_errorPKciS0_S0_z(ptr noundef @.str.4, i32 noundef 1206, ptr noundef @.str.5, ptr noundef @.str.6) #8
  unreachable

11:                                               ; preds = %6
  br label %12

12:                                               ; preds = %11
  %13 = load ptr, ptr %3, align 8
  %14 = call noundef i32 @_ZNK7TypeInt7get_conEv(ptr noundef nonnull align 8 dereferenceable(32) %13)
  ret i32 %14
}

; Function Attrs: mustprogress nounwind uwtable
define linkonce_odr hidden noundef ptr @_ZNK4Node2inEj(ptr noundef nonnull align 8 dereferenceable(52) %0, i32 noundef %1) #1 comdat align 2 {
  %3 = alloca ptr, align 8
  %4 = alloca i32, align 4
  store ptr %0, ptr %3, align 8
  store i32 %1, ptr %4, align 4
  %5 = load ptr, ptr %3, align 8
  %6 = getelementptr inbounds %class.Node, ptr %5, i32 0, i32 1
  %7 = load ptr, ptr %6, align 8
  %8 = load i32, ptr %4, align 4
  %9 = zext i32 %8 to i64
  %10 = getelementptr inbounds ptr, ptr %7, i64 %9
  %11 = load ptr, ptr %10, align 8
  ret ptr %11
}

; Function Attrs: mustprogress nounwind uwtable
define linkonce_odr hidden noundef i32 @_ZNK4Node3reqEv(ptr noundef nonnull align 8 dereferenceable(52) %0) #1 comdat align 2 {
  %2 = alloca ptr, align 8
  store ptr %0, ptr %2, align 8
  %3 = load ptr, ptr %2, align 8
  %4 = getelementptr inbounds %class.Node, ptr %3, i32 0, i32 3
  %5 = load i32, ptr %4, align 8
  ret i32 %5
}

; Function Attrs: mustprogress nounwind uwtable
define internal noundef zeroext i1 @_ZL18check_phi_clippingP7PhiNodeRP7ConNodeRjS3_S4_RP4NodeS4_(ptr noundef %0, ptr noundef nonnull align 8 dereferenceable(8) %1, ptr noundef nonnull align 4 dereferenceable(4) %2, ptr noundef nonnull align 8 dereferenceable(8) %3, ptr noundef nonnull align 4 dereferenceable(4) %4, ptr noundef nonnull align 8 dereferenceable(8) %5, ptr noundef nonnull align 4 dereferenceable(4) %6) #1 {
  %8 = alloca ptr, align 8
  %9 = alloca ptr, align 8
  %10 = alloca ptr, align 8
  %11 = alloca ptr, align 8
  %12 = alloca ptr, align 8
  %13 = alloca ptr, align 8
  %14 = alloca ptr, align 8
  %15 = alloca i32, align 4
  %16 = alloca i32, align 4
  %17 = alloca ptr, align 8
  %18 = alloca i32, align 4
  %19 = alloca ptr, align 8
  %20 = alloca i32, align 4
  store ptr %0, ptr %8, align 8
  store ptr %1, ptr %9, align 8
  store ptr %2, ptr %10, align 8
  store ptr %3, ptr %11, align 8
  store ptr %4, ptr %12, align 8
  store ptr %5, ptr %13, align 8
  store ptr %6, ptr %14, align 8
  %21 = load ptr, ptr %9, align 8
  store ptr null, ptr %21, align 8
  %22 = load ptr, ptr %11, align 8
  store ptr null, ptr %22, align 8
  %23 = load ptr, ptr %13, align 8
  store ptr null, ptr %23, align 8
  %24 = load ptr, ptr %10, align 8
  store i32 0, ptr %24, align 4
  %25 = load ptr, ptr %12, align 8
  store i32 0, ptr %25, align 4
  %26 = load ptr, ptr %14, align 8
  store i32 0, ptr %26, align 4
  %27 = load ptr, ptr %8, align 8
  %28 = call noundef i32 @_ZNK4Node3reqEv(ptr noundef nonnull align 8 dereferenceable(52) %27)
  store i32 %28, ptr %15, align 4
  %29 = load i32, ptr %15, align 4
  %30 = icmp eq i32 %29, 4
  br i1 %30, label %31, label %114

31:                                               ; preds = %7
  store i32 1, ptr %16, align 4
  br label %32

32:                                               ; preds = %110, %31
  %33 = load i32, ptr %16, align 4
  %34 = load i32, ptr %15, align 4
  %35 = icmp ult i32 %33, %34
  br i1 %35, label %36, label %113

36:                                               ; preds = %32
  %37 = load ptr, ptr %8, align 8
  %38 = load i32, ptr %16, align 4
  %39 = call noundef ptr @_ZNK4Node2inEj(ptr noundef nonnull align 8 dereferenceable(52) %37, i32 noundef %38)
  store ptr %39, ptr %17, align 8
  %40 = load ptr, ptr %17, align 8
  %41 = load ptr, ptr %40, align 8
  %42 = getelementptr inbounds ptr, ptr %41, i64 0
  %43 = load ptr, ptr %42, align 8
  %44 = call noundef i32 %43(ptr noundef nonnull align 8 dereferenceable(52) %40)
  store i32 %44, ptr %18, align 4
  %45 = load i32, ptr %18, align 4
  switch i32 %45, label %104 [
    i32 123, label %46
  ]

46:                                               ; preds = %36
  %47 = load ptr, ptr %9, align 8
  %48 = load ptr, ptr %47, align 8
  %49 = icmp eq ptr %48, null
  br i1 %49, label %50, label %65

50:                                               ; preds = %46
  %51 = load ptr, ptr %17, align 8
  %52 = load ptr, ptr %51, align 8
  %53 = getelementptr inbounds ptr, ptr %52, i64 0
  %54 = load ptr, ptr %53, align 8
  %55 = call noundef i32 %54(ptr noundef nonnull align 8 dereferenceable(52) %51)
  %56 = icmp eq i32 %55, 123
  br i1 %56, label %57, label %59

57:                                               ; preds = %50
  %58 = load ptr, ptr %17, align 8
  br label %60

59:                                               ; preds = %50
  br label %60

60:                                               ; preds = %59, %57
  %61 = phi ptr [ %58, %57 ], [ null, %59 ]
  %62 = load ptr, ptr %9, align 8
  store ptr %61, ptr %62, align 8
  %63 = load i32, ptr %16, align 4
  %64 = load ptr, ptr %10, align 8
  store i32 %63, ptr %64, align 4
  br label %103

65:                                               ; preds = %46
  %66 = load ptr, ptr %17, align 8
  %67 = load ptr, ptr %66, align 8
  %68 = getelementptr inbounds ptr, ptr %67, i64 0
  %69 = load ptr, ptr %68, align 8
  %70 = call noundef i32 %69(ptr noundef nonnull align 8 dereferenceable(52) %66)
  %71 = icmp eq i32 %70, 123
  br i1 %71, label %72, label %74

72:                                               ; preds = %65
  %73 = load ptr, ptr %17, align 8
  br label %75

74:                                               ; preds = %65
  br label %75

75:                                               ; preds = %74, %72
  %76 = phi ptr [ %73, %72 ], [ null, %74 ]
  %77 = load ptr, ptr %11, align 8
  store ptr %76, ptr %77, align 8
  %78 = load i32, ptr %16, align 4
  %79 = load ptr, ptr %12, align 8
  store i32 %78, ptr %79, align 4
  %80 = load ptr, ptr %9, align 8
  %81 = load ptr, ptr %80, align 8
  %82 = call noundef i32 @_ZNK4Node7get_intEv(ptr noundef nonnull align 8 dereferenceable(52) %81)
  %83 = load ptr, ptr %11, align 8
  %84 = load ptr, ptr %83, align 8
  %85 = call noundef i32 @_ZNK4Node7get_intEv(ptr noundef nonnull align 8 dereferenceable(52) %84)
  %86 = icmp sgt i32 %82, %85
  br i1 %86, label %87, label %102

87:                                               ; preds = %75
  %88 = load ptr, ptr %9, align 8
  %89 = load ptr, ptr %88, align 8
  store ptr %89, ptr %19, align 8
  %90 = load ptr, ptr %11, align 8
  %91 = load ptr, ptr %90, align 8
  %92 = load ptr, ptr %9, align 8
  store ptr %91, ptr %92, align 8
  %93 = load ptr, ptr %19, align 8
  %94 = load ptr, ptr %11, align 8
  store ptr %93, ptr %94, align 8
  %95 = load ptr, ptr %10, align 8
  %96 = load i32, ptr %95, align 4
  store i32 %96, ptr %20, align 4
  %97 = load ptr, ptr %12, align 8
  %98 = load i32, ptr %97, align 4
  %99 = load ptr, ptr %10, align 8
  store i32 %98, ptr %99, align 4
  %100 = load i32, ptr %20, align 4
  %101 = load ptr, ptr %12, align 8
  store i32 %100, ptr %101, align 4
  br label %102

102:                                              ; preds = %87, %75
  br label %103

103:                                              ; preds = %102, %60
  br label %109

104:                                              ; preds = %36
  %105 = load ptr, ptr %17, align 8
  %106 = load ptr, ptr %13, align 8
  store ptr %105, ptr %106, align 8
  %107 = load i32, ptr %16, align 4
  %108 = load ptr, ptr %14, align 8
  store i32 %107, ptr %108, align 4
  br label %109

109:                                              ; preds = %104, %103
  br label %110

110:                                              ; preds = %109
  %111 = load i32, ptr %16, align 4
  %112 = add i32 %111, 1
  store i32 %112, ptr %16, align 4
  br label %32, !llvm.loop !31

113:                                              ; preds = %32
  br label %114

114:                                              ; preds = %113, %7
  %115 = load ptr, ptr %9, align 8
  %116 = load ptr, ptr %115, align 8
  %117 = icmp ne ptr %116, null
  br i1 %117, label %118, label %136

118:                                              ; preds = %114
  %119 = load ptr, ptr %11, align 8
  %120 = load ptr, ptr %119, align 8
  %121 = icmp ne ptr %120, null
  br i1 %121, label %122, label %136

122:                                              ; preds = %118
  %123 = load ptr, ptr %13, align 8
  %124 = load ptr, ptr %123, align 8
  %125 = icmp ne ptr %124, null
  br i1 %125, label %126, label %136

126:                                              ; preds = %122
  %127 = load ptr, ptr %9, align 8
  %128 = load ptr, ptr %127, align 8
  %129 = call noundef i32 @_ZNK4Node7get_intEv(ptr noundef nonnull align 8 dereferenceable(52) %128)
  %130 = icmp sle i32 %129, 0
  br i1 %130, label %131, label %136

131:                                              ; preds = %126
  %132 = load ptr, ptr %11, align 8
  %133 = load ptr, ptr %132, align 8
  %134 = call noundef i32 @_ZNK4Node7get_intEv(ptr noundef nonnull align 8 dereferenceable(52) %133)
  %135 = icmp sge i32 %134, 0
  br label %136

136:                                              ; preds = %131, %126, %122, %118, %114
  %137 = phi i1 [ false, %126 ], [ false, %122 ], [ false, %118 ], [ false, %114 ], [ %135, %131 ]
  ret i1 %137
}