; Function Attrs: mustprogress nounwind uwtable
define internal fastcc noundef zeroext i1 @_ZL18check_phi_clippingP7PhiNodeRP7ConNodeRjS3_S4_RP4NodeS4_(ptr nocapture noundef readonly %0, ptr nocapture noundef nonnull align 8 dereferenceable(8) %1, ptr nocapture noundef nonnull align 4 dereferenceable(4) %2, ptr nocapture noundef nonnull align 8 dereferenceable(8) %3, ptr nocapture noundef nonnull align 4 dereferenceable(4) %4, ptr nocapture noundef nonnull align 8 dereferenceable(8) %5, ptr nocapture noundef nonnull writeonly align 4 dereferenceable(4) %6) unnamed_addr #2 {
  store ptr null, ptr %1, align 8
  store ptr null, ptr %3, align 8
  store ptr null, ptr %5, align 8
  store i32 0, ptr %2, align 4
  store i32 0, ptr %4, align 4
  store i32 0, ptr %6, align 4
  %8 = getelementptr inbounds i8, ptr %0, i64 24
  %9 = load i32, ptr %8, align 8
  %10 = icmp eq i32 %9, 4
  br i1 %10, label %.preheader, label %.loopexit

.preheader:                                       ; preds = %7
  %11 = getelementptr inbounds i8, ptr %0, i64 8
  br label %12

12:                                               ; preds = %.preheader, %50
  %indvars.iv = phi i64 [ 1, %.preheader ], [ %indvars.iv.next, %50 ]
  %13 = load ptr, ptr %11, align 8
  %14 = getelementptr inbounds ptr, ptr %13, i64 %indvars.iv
  %15 = load ptr, ptr %14, align 8
  %16 = load ptr, ptr %15, align 8
  %17 = load ptr, ptr %16, align 8
  %18 = tail call noundef i32 %17(ptr noundef nonnull align 8 dereferenceable(52) %15) #10
  %cond = icmp eq i32 %18, 123
  br i1 %cond, label %19, label %48

19:                                               ; preds = %12
  %20 = load ptr, ptr %1, align 8
  %21 = icmp eq ptr %20, null
  %22 = load ptr, ptr %15, align 8
  %23 = load ptr, ptr %22, align 8
  %24 = tail call noundef i32 %23(ptr noundef nonnull align 8 dereferenceable(52) %15) #10
  %25 = icmp eq i32 %24, 123
  %26 = select i1 %25, ptr %15, ptr null
  %27 = trunc nuw nsw i64 %indvars.iv to i32
  br i1 %21, label %28, label %29

28:                                               ; preds = %19
  store ptr %26, ptr %1, align 8
  store i32 %27, ptr %2, align 4
  br label %50

29:                                               ; preds = %19
  store ptr %26, ptr %3, align 8
  store i32 %27, ptr %4, align 4
  %30 = load ptr, ptr %1, align 8
  %31 = tail call noundef ptr @_ZNK4Node13find_int_typeEv(ptr noundef nonnull align 8 dereferenceable(52) %30) #10
  %.not.i = icmp eq ptr %31, null
  br i1 %.not.i, label %32, label %_ZNK4Node7get_intEv.exit

32:                                               ; preds = %29
  %33 = load ptr, ptr @g_assert_poison, align 8
  store i8 88, ptr %33, align 1
  tail call void (ptr, i32, ptr, ptr, ...) @_Z15report_vm_errorPKciS0_S0_z(ptr noundef nonnull @.str.4, i32 noundef 1206, ptr noundef nonnull @.str.5, ptr noundef nonnull @.str.6) #11
  unreachable

_ZNK4Node7get_intEv.exit:                         ; preds = %29
  %34 = getelementptr inbounds i8, ptr %31, i64 24
  %35 = load i32, ptr %34, align 8
  %36 = load ptr, ptr %3, align 8
  %37 = tail call noundef ptr @_ZNK4Node13find_int_typeEv(ptr noundef nonnull align 8 dereferenceable(52) %36) #10
  %.not.i51 = icmp eq ptr %37, null
  br i1 %.not.i51, label %38, label %_ZNK4Node7get_intEv.exit52

38:                                               ; preds = %_ZNK4Node7get_intEv.exit
  %39 = load ptr, ptr @g_assert_poison, align 8
  store i8 88, ptr %39, align 1
  tail call void (ptr, i32, ptr, ptr, ...) @_Z15report_vm_errorPKciS0_S0_z(ptr noundef nonnull @.str.4, i32 noundef 1206, ptr noundef nonnull @.str.5, ptr noundef nonnull @.str.6) #11
  unreachable

_ZNK4Node7get_intEv.exit52:                       ; preds = %_ZNK4Node7get_intEv.exit
  %40 = getelementptr inbounds i8, ptr %37, i64 24
  %41 = load i32, ptr %40, align 8
  %42 = icmp sgt i32 %35, %41
  br i1 %42, label %43, label %50

43:                                               ; preds = %_ZNK4Node7get_intEv.exit52
  %44 = load ptr, ptr %1, align 8
  %45 = load ptr, ptr %3, align 8
  store ptr %45, ptr %1, align 8
  store ptr %44, ptr %3, align 8
  %46 = load i32, ptr %2, align 4
  %47 = load i32, ptr %4, align 4
  store i32 %47, ptr %2, align 4
  store i32 %46, ptr %4, align 4
  br label %50

48:                                               ; preds = %12
  store ptr %15, ptr %5, align 8
  %49 = trunc nuw nsw i64 %indvars.iv to i32
  store i32 %49, ptr %6, align 4
  br label %50

50:                                               ; preds = %48, %_ZNK4Node7get_intEv.exit52, %43, %28
  %indvars.iv.next = add nuw nsw i64 %indvars.iv, 1
  %exitcond.not = icmp eq i64 %indvars.iv.next, 4
  br i1 %exitcond.not, label %.loopexit, label %12, !llvm.loop !33

.loopexit:                                        ; preds = %50, %7
  %51 = load ptr, ptr %1, align 8
  %.not = icmp eq ptr %51, null
  %52 = load ptr, ptr %3, align 8
  %.not48 = icmp eq ptr %52, null
  %or.cond = select i1 %.not, i1 true, i1 %.not48
  %53 = load ptr, ptr %5, align 8
  %.not49 = icmp eq ptr %53, null
  %or.cond50 = select i1 %or.cond, i1 true, i1 %.not49
  br i1 %or.cond50, label %69, label %54

54:                                               ; preds = %.loopexit
  %55 = tail call noundef ptr @_ZNK4Node13find_int_typeEv(ptr noundef nonnull align 8 dereferenceable(52) %51) #10
  %.not.i53 = icmp eq ptr %55, null
  br i1 %.not.i53, label %56, label %_ZNK4Node7get_intEv.exit54

56:                                               ; preds = %54
  %57 = load ptr, ptr @g_assert_poison, align 8
  store i8 88, ptr %57, align 1
  tail call void (ptr, i32, ptr, ptr, ...) @_Z15report_vm_errorPKciS0_S0_z(ptr noundef nonnull @.str.4, i32 noundef 1206, ptr noundef nonnull @.str.5, ptr noundef nonnull @.str.6) #11
  unreachable

_ZNK4Node7get_intEv.exit54:                       ; preds = %54
  %58 = getelementptr inbounds i8, ptr %55, i64 24
  %59 = load i32, ptr %58, align 8
  %60 = icmp slt i32 %59, 1
  br i1 %60, label %61, label %69

61:                                               ; preds = %_ZNK4Node7get_intEv.exit54
  %62 = load ptr, ptr %3, align 8
  %63 = tail call noundef ptr @_ZNK4Node13find_int_typeEv(ptr noundef nonnull align 8 dereferenceable(52) %62) #10
  %.not.i55 = icmp eq ptr %63, null
  br i1 %.not.i55, label %64, label %_ZNK4Node7get_intEv.exit56

64:                                               ; preds = %61
  %65 = load ptr, ptr @g_assert_poison, align 8
  store i8 88, ptr %65, align 1
  tail call void (ptr, i32, ptr, ptr, ...) @_Z15report_vm_errorPKciS0_S0_z(ptr noundef nonnull @.str.4, i32 noundef 1206, ptr noundef nonnull @.str.5, ptr noundef nonnull @.str.6) #11
  unreachable

_ZNK4Node7get_intEv.exit56:                       ; preds = %61
  %66 = getelementptr inbounds i8, ptr %63, i64 24
  %67 = load i32, ptr %66, align 8
  %68 = icmp sgt i32 %67, -1
  br label %69

69:                                               ; preds = %_ZNK4Node7get_intEv.exit56, %_ZNK4Node7get_intEv.exit54, %.loopexit
  %70 = phi i1 [ false, %_ZNK4Node7get_intEv.exit54 ], [ false, %.loopexit ], [ %68, %_ZNK4Node7get_intEv.exit56 ]
  ret i1 %70
}